target datalayout = "e-m:e-p270:32:32-p271:32:32-p272:64:64-i64:64-i128:128-f80:128-n8:16:32:64-S128"
target triple = "x86_64-pc-linux-gnu"

; Function Attrs: inlinehint nounwind sspstrong uwtable
define internal i32 @rb_check_arity(i32 noundef %0, i32 noundef %1, i32 noundef %2) #3 {
  %4 = alloca i32, align 4
  %5 = alloca i32, align 4
  %6 = alloca i32, align 4
  store i32 %0, ptr %4, align 4, !tbaa !32
  store i32 %1, ptr %5, align 4, !tbaa !32
  store i32 %2, ptr %6, align 4, !tbaa !32
  %7 = load i32, ptr %4, align 4, !tbaa !32
  %8 = load i32, ptr %5, align 4, !tbaa !32
  %9 = icmp slt i32 %7, %8
  br i1 %9, label %17, label %10

10:                                               ; preds = %3
  %11 = load i32, ptr %6, align 4, !tbaa !32
  %12 = icmp ne i32 %11, -1
  br i1 %12, label %13, label %21

13:                                               ; preds = %10
  %14 = load i32, ptr %4, align 4, !tbaa !32
  %15 = load i32, ptr %6, align 4, !tbaa !32
  %16 = icmp sgt i32 %14, %15
  br i1 %16, label %17, label %21

17:                                               ; preds = %13, %3
  %18 = load i32, ptr %4, align 4, !tbaa !32
  %19 = load i32, ptr %5, align 4, !tbaa !32
  %20 = load i32, ptr %6, align 4, !tbaa !32
  call void @rb_error_arity(i32 noundef %18, i32 noundef %19, i32 noundef %20) #26
  unreachable

21:                                               ; preds = %13, %10
  %22 = load i32, ptr %4, align 4, !tbaa !32
  ret i32 %22
}

; Function Attrs: nounwind sspstrong uwtable
define internal i64 @io_buffer_write(i32 noundef %0, ptr noundef %1, i64 noundef %2) #0 {
  %4 = alloca i32, align 4
  %5 = alloca ptr, align 8
  %6 = alloca i64, align 8
  %7 = alloca i64, align 8
  %8 = alloca i64, align 8
  %9 = alloca i64, align 8
  store i32 %0, ptr %4, align 4, !tbaa !32
  store ptr %1, ptr %5, align 8, !tbaa !33
  store i64 %2, ptr %6, align 8, !tbaa !20
  %10 = load i32, ptr %4, align 4, !tbaa !32
  %11 = call i32 @rb_check_arity(i32 noundef %10, i32 noundef 1, i32 noundef 3)
  call void @llvm.lifetime.start.p0(i64 8, ptr %7) #22
  %12 = load ptr, ptr %5, align 8, !tbaa !33
  %13 = getelementptr i64, ptr %12, i64 0
  %14 = load i64, ptr %13, align 8, !tbaa !20
  store i64 %14, ptr %7, align 8, !tbaa !20
  call void @llvm.lifetime.start.p0(i64 8, ptr %8) #22
  call void @llvm.lifetime.start.p0(i64 8, ptr %9) #22
  %15 = load i64, ptr %6, align 8, !tbaa !20
  %16 = load i32, ptr %4, align 4, !tbaa !32
  %17 = sub i32 %16, 1
  %18 = load ptr, ptr %5, align 8, !tbaa !33
  %19 = getelementptr i64, ptr %18, i64 1
  %20 = call ptr @io_buffer_extract_length_offset(i64 noundef %15, i32 noundef %17, ptr noundef %19, ptr noundef %8, ptr noundef %9)
  %21 = load i64, ptr %6, align 8, !tbaa !20
  %22 = load i64, ptr %7, align 8, !tbaa !20
  %23 = load i64, ptr %8, align 8, !tbaa !20
  %24 = load i64, ptr %9, align 8, !tbaa !20
  %25 = call i64 @rb_io_buffer_write(i64 noundef %21, i64 noundef %22, i64 noundef %23, i64 noundef %24)
  call void @llvm.lifetime.end.p0(i64 8, ptr %9) #22
  call void @llvm.lifetime.end.p0(i64 8, ptr %8) #22
  call void @llvm.lifetime.end.p0(i64 8, ptr %7) #22
  ret i64 %25
}