; Function Attrs: nounwind sspstrong uwtable
define internal i64 @io_buffer_write(i32 noundef %0, ptr noundef readonly captures(none) %1, i64 noundef %2) #0 {
  %4 = alloca i64, align 8
  %5 = alloca i64, align 8
  %6 = add i32 %0, -4
  %or.cond.i = icmp ult i32 %6, -3
  br i1 %or.cond.i, label %7, label %rb_check_arity.exit

7:                                                ; preds = %3
  tail call void @rb_error_arity(i32 noundef %0, i32 noundef 1, i32 noundef 3) #26
  unreachable

rb_check_arity.exit:                              ; preds = %3
  %8 = load i64, ptr %1, align 8, !tbaa !22
  call void @llvm.lifetime.start.p0(i64 8, ptr nonnull %4) #25
  call void @llvm.lifetime.start.p0(i64 8, ptr nonnull %5) #25
  %9 = add nsw i32 %0, -1
  %10 = getelementptr i8, ptr %1, i64 8
  call fastcc void @io_buffer_extract_length_offset(i64 noundef %2, i32 noundef %9, ptr noundef %10, ptr noundef %4, ptr noundef %5)
  %11 = load i64, ptr %4, align 8, !tbaa !22
  %12 = load i64, ptr %5, align 8, !tbaa !22
  %13 = tail call i64 @rb_io_buffer_write(i64 noundef %2, i64 noundef %8, i64 noundef %11, i64 noundef %12)
  call void @llvm.lifetime.end.p0(i64 8, ptr nonnull %5) #25
  call void @llvm.lifetime.end.p0(i64 8, ptr nonnull %4) #25
  ret i64 %13
}